; Listing generated by Microsoft (R) Optimizing Compiler Version 19.16.27042.0 

include listing.inc

INCLUDELIB MSVCRTD
INCLUDELIB OLDNAMES

CONST	SEGMENT
$SG164408 DB	'd:\qt\5.14.2\msvc2017_64\include\qtcore\qmetatype.h', 00H
	ORG $+12
$SG164409 DB	'qRegisterNormalizedMetaType was called with a not normal'
	DB	'ized type name, please call qRegisterMetaType instead.', 00H
	ORG $+1
$SG164410 DB	'qRegisterNormalizedMetaType', 00H
	ORG $+4
$SG164769 DB	'd:\qt\5.14.2\msvc2017_64\include\qtcore\qmetatype.h', 00H
	ORG $+12
$SG164770 DB	'qRegisterNormalizedMetaType was called with a not normal'
	DB	'ized type name, please call qRegisterMetaType instead.', 00H
	ORG $+1
$SG164771 DB	'qRegisterNormalizedMetaType', 00H
	ORG $+4
$SG165130 DB	'd:\qt\5.14.2\msvc2017_64\include\qtcore\qmetatype.h', 00H
	ORG $+12
$SG165131 DB	'qRegisterNormalizedMetaType was called with a not normal'
	DB	'ized type name, please call qRegisterMetaType instead.', 00H
	ORG $+1
$SG165132 DB	'qRegisterNormalizedMetaType', 00H
	ORG $+4
?qt_meta_stringdata_process3@@3Uqt_meta_stringdata_process3_t@@B DD 0ffffffffH ; qt_meta_stringdata_process3
	DD	08H
	DD	00H
	ORG $+4
	DQ	0000000000000060H
	DD	0ffffffffH
	DD	08H
	DD	00H
	ORG $+4
	DQ	0000000000000051H
	DD	0ffffffffH
	DD	00H
	DD	00H
	ORG $+4
	DQ	0000000000000042H
	DD	0ffffffffH
	DD	0aH
	DD	00H
	ORG $+4
	DQ	000000000000002bH
	DB	070H
	DB	072H
	DB	06fH
	DB	063H
	DB	065H
	DB	073H
	DB	073H
	DB	033H
	DB	00H
	DB	062H
	DB	074H
	DB	06eH
	DB	045H
	DB	076H
	DB	065H
	DB	06eH
	DB	074H
	DB	00H
	DB	00H
	DB	062H
	DB	074H
	DB	06eH
	DB	050H
	DB	072H
	DB	06fH
	DB	063H
	DB	065H
	DB	073H
	DB	073H
	DB	00H
	ORG $+2
?qt_meta_data_process3@@3QBIB DD 08H			; qt_meta_data_process3
	DD	00H
	DD	00H
	DD	00H
	DD	02H
	DD	0eH
	DD	00H
	DD	00H
	DD	00H
	DD	00H
	DD	00H
	DD	00H
	DD	00H
	DD	00H
	DD	01H
	DD	00H
	DD	018H
	DD	02H
	DD	0aH
	DD	03H
	DD	00H
	DD	019H
	DD	02H
	DD	0aH
	DD	02bH
	DD	02bH
	DD	00H
	ORG $+4
$SG166355 DB	'd:\qt\5.14.2\msvc2017_64\include\qtcore\qmetatype.h', 00H
	ORG $+12
$SG166356 DB	'qRegisterNormalizedMetaType was called with a not normal'
	DB	'ized type name, please call qRegisterMetaType instead.', 00H
	ORG $+1
$SG166357 DB	'qRegisterNormalizedMetaType', 00H
	ORG $+4
$SG161270 DB	'd:\qt\5.14.2\msvc2017_64\include\qtcore\qmetatype.h', 00H
	ORG $+12
$SG161271 DB	'qRegisterNormalizedMetaType was called with a not normal'
	DB	'ized type name, please call qRegisterMetaType instead.', 00H
	ORG $+1
$SG161272 DB	'qRegisterNormalizedMetaType', 00H
CONST	ENDS
PUBLIC	?__empty_global_delete@@YAXPEAX@Z		; __empty_global_delete
PUBLIC	?__empty_global_delete@@YAXPEAX_K@Z		; __empty_global_delete
PUBLIC	??0SuperData@QMetaObject@@QEAA@PEBU1@@Z		; QMetaObject::SuperData::SuperData
PUBLIC	??C?$QScopedPointer@VQObjectData@@U?$QScopedPointerDeleter@VQObjectData@@@@@@QEBAPEAVQObjectData@@XZ ; QScopedPointer<QObjectData,QScopedPointerDeleter<QObjectData> >::operator->
PUBLIC	?metaObject@process3@@UEBAPEBUQMetaObject@@XZ	; process3::metaObject
PUBLIC	?qt_metacast@process3@@UEAAPEAXPEBD@Z		; process3::qt_metacast
PUBLIC	?qt_metacall@process3@@UEAAHW4Call@QMetaObject@@HPEAPEAX@Z ; process3::qt_metacall
PUBLIC	?qt_static_metacall@process3@@CAXPEAVQObject@@W4Call@QMetaObject@@HPEAPEAX@Z ; process3::qt_static_metacall
PUBLIC	??$link@$1?staticMetaObject@QMainWindow@@2UQMetaObject@@B@SuperData@QMetaObject@@SA?AU01@XZ ; QMetaObject::SuperData::link<&QMainWindow::staticMetaObject>
PUBLIC	??$staticMetaObject@$1?staticMetaObject@QMainWindow@@2UQMetaObject@@B@QMetaObject@@SAPEBU0@XZ ; QMetaObject::staticMetaObject<&QMainWindow::staticMetaObject>
PUBLIC	?staticMetaObject@process3@@2UQMetaObject@@B	; process3::staticMetaObject
EXTRN	strcmp:PROC
EXTRN	__imp_?dynamicMetaObject@QObjectData@@QEBAPEAUQMetaObject@@XZ:PROC
EXTRN	__imp_?qt_metacast@QMainWindow@@UEAAPEAXPEBD@Z:PROC
EXTRN	__imp_?qt_metacall@QMainWindow@@UEAAHW4Call@QMetaObject@@HPEAPEAX@Z:PROC
EXTRN	?btnEvent@process3@@QEAAXXZ:PROC		; process3::btnEvent
EXTRN	?btnProcess@process3@@QEAAXXZ:PROC		; process3::btnProcess
EXTRN	__imp_?staticMetaObject@QMainWindow@@2UQMetaObject@@B:BYTE
_BSS	SEGMENT
?staticMetaObject@process3@@2UQMetaObject@@B DB 030H DUP (?) ; process3::staticMetaObject
_BSS	ENDS
pdata	SEGMENT
$pdata$?metaObject@process3@@UEBAPEBUQMetaObject@@XZ DD imagerel $LN5
	DD	imagerel $LN5+88
	DD	imagerel $unwind$?metaObject@process3@@UEBAPEBUQMetaObject@@XZ
$pdata$?qt_metacast@process3@@UEAAPEAXPEBD@Z DD imagerel $LN5
	DD	imagerel $LN5+75
	DD	imagerel $unwind$?qt_metacast@process3@@UEAAPEAXPEBD@Z
$pdata$?qt_metacall@process3@@UEAAHW4Call@QMetaObject@@HPEAPEAX@Z DD imagerel $LN9
	DD	imagerel $LN9+174
	DD	imagerel $unwind$?qt_metacall@process3@@UEAAHW4Call@QMetaObject@@HPEAPEAX@Z
$pdata$?qt_static_metacall@process3@@CAXPEAVQObject@@W4Call@QMetaObject@@HPEAPEAX@Z DD imagerel $LN9
	DD	imagerel $LN9+91
	DD	imagerel $unwind$?qt_static_metacall@process3@@CAXPEAVQObject@@W4Call@QMetaObject@@HPEAPEAX@Z
pdata	ENDS
;	COMDAT pdata
pdata	SEGMENT
$pdata$??$link@$1?staticMetaObject@QMainWindow@@2UQMetaObject@@B@SuperData@QMetaObject@@SA?AU01@XZ DD imagerel $LN3
	DD	imagerel $LN3+37
	DD	imagerel $unwind$??$link@$1?staticMetaObject@QMainWindow@@2UQMetaObject@@B@SuperData@QMetaObject@@SA?AU01@XZ
pdata	ENDS
;	COMDAT pdata
pdata	SEGMENT
$pdata$??__E?staticMetaObject@process3@@2UQMetaObject@@B@@YAXXZ DD imagerel ??__E?staticMetaObject@process3@@2UQMetaObject@@B@@YAXXZ
	DD	imagerel ??__E?staticMetaObject@process3@@2UQMetaObject@@B@@YAXXZ+85
	DD	imagerel $unwind$??__E?staticMetaObject@process3@@2UQMetaObject@@B@@YAXXZ
pdata	ENDS
CRT$XCU	SEGMENT
??staticMetaObject$initializer$@process3@@2P6AXXZEA@@3P6AXXZEA DQ FLAT:??__E?staticMetaObject@process3@@2UQMetaObject@@B@@YAXXZ ; ??staticMetaObject$initializer$@process3@@2P6AXXZEA@@3P6AXXZEA
CRT$XCU	ENDS
;	COMDAT xdata
xdata	SEGMENT
$unwind$??__E?staticMetaObject@process3@@2UQMetaObject@@B@@YAXXZ DD 010401H
	DD	04204H
xdata	ENDS
;	COMDAT xdata
xdata	SEGMENT
$unwind$??$link@$1?staticMetaObject@QMainWindow@@2UQMetaObject@@B@SuperData@QMetaObject@@SA?AU01@XZ DD 010901H
	DD	04209H
xdata	ENDS
xdata	SEGMENT
$unwind$?metaObject@process3@@UEBAPEBUQMetaObject@@XZ DD 010901H
	DD	06209H
$unwind$?qt_metacast@process3@@UEAAPEAXPEBD@Z DD 010e01H
	DD	0420eH
$unwind$?qt_metacall@process3@@UEAAHW4Call@QMetaObject@@HPEAPEAX@Z DD 011701H
	DD	04217H
$unwind$?qt_static_metacall@process3@@CAXPEAVQObject@@W4Call@QMetaObject@@HPEAPEAX@Z DD 011701H
	DD	06217H
xdata	ENDS
; Function compile flags: /Odtp
;	COMDAT ??__E?staticMetaObject@process3@@2UQMetaObject@@B@@YAXXZ
text$di	SEGMENT
??__E?staticMetaObject@process3@@2UQMetaObject@@B@@YAXXZ PROC ; `dynamic initializer for 'process3::staticMetaObject'', COMDAT
; File d:\0-documentation\qt\process3\process3\x64\debug\moc\moc_process3.cpp
; Line 90
	sub	rsp, 40					; 00000028H
; Line 84
	lea	rcx, OFFSET FLAT:?staticMetaObject@process3@@2UQMetaObject@@B ; process3::staticMetaObject
	call	??$link@$1?staticMetaObject@QMainWindow@@2UQMetaObject@@B@SuperData@QMetaObject@@SA?AU01@XZ ; QMetaObject::SuperData::link<&QMainWindow::staticMetaObject>
; Line 85
	lea	rax, OFFSET FLAT:?qt_meta_stringdata_process3@@3Uqt_meta_stringdata_process3_t@@B
	mov	QWORD PTR ?staticMetaObject@process3@@2UQMetaObject@@B+8, rax
; Line 86
	lea	rax, OFFSET FLAT:?qt_meta_data_process3@@3QBIB
	mov	QWORD PTR ?staticMetaObject@process3@@2UQMetaObject@@B+16, rax
; Line 87
	lea	rax, OFFSET FLAT:?qt_static_metacall@process3@@CAXPEAVQObject@@W4Call@QMetaObject@@HPEAPEAX@Z ; process3::qt_static_metacall
	mov	QWORD PTR ?staticMetaObject@process3@@2UQMetaObject@@B+24, rax
; Line 88
	mov	QWORD PTR ?staticMetaObject@process3@@2UQMetaObject@@B+32, 0
; Line 89
	mov	QWORD PTR ?staticMetaObject@process3@@2UQMetaObject@@B+40, 0
	add	rsp, 40					; 00000028H
	ret	0
??__E?staticMetaObject@process3@@2UQMetaObject@@B@@YAXXZ ENDP ; `dynamic initializer for 'process3::staticMetaObject''
text$di	ENDS
; Function compile flags: /Odtp
;	COMDAT ??$staticMetaObject@$1?staticMetaObject@QMainWindow@@2UQMetaObject@@B@QMetaObject@@SAPEBU0@XZ
_TEXT	SEGMENT
??$staticMetaObject@$1?staticMetaObject@QMainWindow@@2UQMetaObject@@B@QMetaObject@@SAPEBU0@XZ PROC ; QMetaObject::staticMetaObject<&QMainWindow::staticMetaObject>, COMDAT
; File d:\qt\5.14.2\msvc2017_64\include\qtcore\qobjectdefs.h
; Line 577
	mov	rax, QWORD PTR __imp_?staticMetaObject@QMainWindow@@2UQMetaObject@@B
; Line 578
	ret	0
??$staticMetaObject@$1?staticMetaObject@QMainWindow@@2UQMetaObject@@B@QMetaObject@@SAPEBU0@XZ ENDP ; QMetaObject::staticMetaObject<&QMainWindow::staticMetaObject>
_TEXT	ENDS
; Function compile flags: /Odtp
;	COMDAT ??$link@$1?staticMetaObject@QMainWindow@@2UQMetaObject@@B@SuperData@QMetaObject@@SA?AU01@XZ
_TEXT	SEGMENT
__$ReturnUdt$ = 48
??$link@$1?staticMetaObject@QMainWindow@@2UQMetaObject@@B@SuperData@QMetaObject@@SA?AU01@XZ PROC ; QMetaObject::SuperData::link<&QMainWindow::staticMetaObject>, COMDAT
; File d:\qt\5.14.2\msvc2017_64\include\qtcore\qobjectdefs.h
; Line 600
$LN3:
	mov	QWORD PTR [rsp+8], rcx
	sub	rsp, 40					; 00000028H
	call	??$staticMetaObject@$1?staticMetaObject@QMainWindow@@2UQMetaObject@@B@QMetaObject@@SAPEBU0@XZ ; QMetaObject::staticMetaObject<&QMainWindow::staticMetaObject>
	mov	rdx, rax
	mov	rcx, QWORD PTR __$ReturnUdt$[rsp]
	call	??0SuperData@QMetaObject@@QEAA@PEBU1@@Z	; QMetaObject::SuperData::SuperData
	mov	rax, QWORD PTR __$ReturnUdt$[rsp]
	add	rsp, 40					; 00000028H
	ret	0
??$link@$1?staticMetaObject@QMainWindow@@2UQMetaObject@@B@SuperData@QMetaObject@@SA?AU01@XZ ENDP ; QMetaObject::SuperData::link<&QMainWindow::staticMetaObject>
_TEXT	ENDS
; Function compile flags: /Odtp
_TEXT	SEGMENT
tv69 = 32
_t$1 = 40
_o$ = 64
_c$ = 72
_id$ = 80
_a$ = 88
?qt_static_metacall@process3@@CAXPEAVQObject@@W4Call@QMetaObject@@HPEAPEAX@Z PROC ; process3::qt_static_metacall
; File d:\0-documentation\qt\process3\process3\x64\debug\moc\moc_process3.cpp
; Line 70
$LN9:
	mov	QWORD PTR [rsp+32], r9
	mov	DWORD PTR [rsp+24], r8d
	mov	DWORD PTR [rsp+16], edx
	mov	QWORD PTR [rsp+8], rcx
	sub	rsp, 56					; 00000038H
; Line 71
	cmp	DWORD PTR _c$[rsp], 0
	jne	SHORT $LN4@qt_static_
; Line 72
	mov	rax, QWORD PTR _o$[rsp]
	mov	QWORD PTR _t$1[rsp], rax
; Line 74
	mov	eax, DWORD PTR _id$[rsp]
	mov	DWORD PTR tv69[rsp], eax
	cmp	DWORD PTR tv69[rsp], 0
	je	SHORT $LN5@qt_static_
	cmp	DWORD PTR tv69[rsp], 1
	je	SHORT $LN6@qt_static_
	jmp	SHORT $LN7@qt_static_
$LN5@qt_static_:
; Line 75
	mov	rcx, QWORD PTR _t$1[rsp]
	call	?btnEvent@process3@@QEAAXXZ		; process3::btnEvent
	jmp	SHORT $LN2@qt_static_
$LN6@qt_static_:
; Line 76
	mov	rcx, QWORD PTR _t$1[rsp]
	call	?btnProcess@process3@@QEAAXXZ		; process3::btnProcess
$LN7@qt_static_:
$LN2@qt_static_:
$LN4@qt_static_:
; Line 81
	add	rsp, 56					; 00000038H
	ret	0
?qt_static_metacall@process3@@CAXPEAVQObject@@W4Call@QMetaObject@@HPEAPEAX@Z ENDP ; process3::qt_static_metacall
_TEXT	ENDS
; Function compile flags: /Odtp
_TEXT	SEGMENT
this$ = 48
_c$ = 56
_id$ = 64
_a$ = 72
?qt_metacall@process3@@UEAAHW4Call@QMetaObject@@HPEAPEAX@Z PROC ; process3::qt_metacall
; File d:\0-documentation\qt\process3\process3\x64\debug\moc\moc_process3.cpp
; Line 107
$LN9:
	mov	QWORD PTR [rsp+32], r9
	mov	DWORD PTR [rsp+24], r8d
	mov	DWORD PTR [rsp+16], edx
	mov	QWORD PTR [rsp+8], rcx
	sub	rsp, 40					; 00000028H
; Line 108
	mov	r9, QWORD PTR _a$[rsp]
	mov	r8d, DWORD PTR _id$[rsp]
	mov	edx, DWORD PTR _c$[rsp]
	mov	rcx, QWORD PTR this$[rsp]
	call	QWORD PTR __imp_?qt_metacall@QMainWindow@@UEAAHW4Call@QMetaObject@@HPEAPEAX@Z
	mov	DWORD PTR _id$[rsp], eax
; Line 109
	cmp	DWORD PTR _id$[rsp], 0
	jge	SHORT $LN2@qt_metacal
; Line 110
	mov	eax, DWORD PTR _id$[rsp]
	jmp	SHORT $LN1@qt_metacal
$LN2@qt_metacal:
; Line 111
	cmp	DWORD PTR _c$[rsp], 0
	jne	SHORT $LN3@qt_metacal
; Line 112
	cmp	DWORD PTR _id$[rsp], 2
	jge	SHORT $LN5@qt_metacal
; Line 113
	mov	r9, QWORD PTR _a$[rsp]
	mov	r8d, DWORD PTR _id$[rsp]
	mov	edx, DWORD PTR _c$[rsp]
	mov	rcx, QWORD PTR this$[rsp]
	call	?qt_static_metacall@process3@@CAXPEAVQObject@@W4Call@QMetaObject@@HPEAPEAX@Z ; process3::qt_static_metacall
$LN5@qt_metacal:
; Line 114
	mov	eax, DWORD PTR _id$[rsp]
	sub	eax, 2
	mov	DWORD PTR _id$[rsp], eax
	jmp	SHORT $LN4@qt_metacal
$LN3@qt_metacal:
; Line 115
	cmp	DWORD PTR _c$[rsp], 12
	jne	SHORT $LN6@qt_metacal
; Line 116
	cmp	DWORD PTR _id$[rsp], 2
	jge	SHORT $LN7@qt_metacal
; Line 117
	mov	eax, 8
	imul	rax, rax, 0
	mov	rcx, QWORD PTR _a$[rsp]
	mov	rax, QWORD PTR [rcx+rax]
	mov	DWORD PTR [rax], -1
$LN7@qt_metacal:
; Line 118
	mov	eax, DWORD PTR _id$[rsp]
	sub	eax, 2
	mov	DWORD PTR _id$[rsp], eax
$LN6@qt_metacal:
$LN4@qt_metacal:
; Line 120
	mov	eax, DWORD PTR _id$[rsp]
$LN1@qt_metacal:
; Line 121
	add	rsp, 40					; 00000028H
	ret	0
?qt_metacall@process3@@UEAAHW4Call@QMetaObject@@HPEAPEAX@Z ENDP ; process3::qt_metacall
_TEXT	ENDS
; Function compile flags: /Odtp
_TEXT	SEGMENT
this$ = 48
_clname$ = 56
?qt_metacast@process3@@UEAAPEAXPEBD@Z PROC		; process3::qt_metacast
; File d:\0-documentation\qt\process3\process3\x64\debug\moc\moc_process3.cpp
; Line 99
$LN5:
	mov	QWORD PTR [rsp+16], rdx
	mov	QWORD PTR [rsp+8], rcx
	sub	rsp, 40					; 00000028H
; Line 100
	cmp	QWORD PTR _clname$[rsp], 0
	jne	SHORT $LN2@qt_metacas
	xor	eax, eax
	jmp	SHORT $LN1@qt_metacas
$LN2@qt_metacas:
; Line 101
	lea	rdx, OFFSET FLAT:?qt_meta_stringdata_process3@@3Uqt_meta_stringdata_process3_t@@B+96
	mov	rcx, QWORD PTR _clname$[rsp]
	call	strcmp
	test	eax, eax
	jne	SHORT $LN3@qt_metacas
; Line 102
	mov	rax, QWORD PTR this$[rsp]
	jmp	SHORT $LN1@qt_metacas
$LN3@qt_metacas:
; Line 103
	mov	rdx, QWORD PTR _clname$[rsp]
	mov	rcx, QWORD PTR this$[rsp]
	call	QWORD PTR __imp_?qt_metacast@QMainWindow@@UEAAPEAXPEBD@Z
$LN1@qt_metacas:
; Line 104
	add	rsp, 40					; 00000028H
	ret	0
?qt_metacast@process3@@UEAAPEAXPEBD@Z ENDP		; process3::qt_metacast
_TEXT	ENDS
; Function compile flags: /Odtp
_TEXT	SEGMENT
tv82 = 32
this$ = 64
?metaObject@process3@@UEBAPEBUQMetaObject@@XZ PROC	; process3::metaObject
; File d:\0-documentation\qt\process3\process3\x64\debug\moc\moc_process3.cpp
; Line 94
$LN5:
	mov	QWORD PTR [rsp+8], rcx
	sub	rsp, 56					; 00000038H
; Line 95
	mov	rax, QWORD PTR this$[rsp]
	add	rax, 8
	mov	rcx, rax
	call	??C?$QScopedPointer@VQObjectData@@U?$QScopedPointerDeleter@VQObjectData@@@@@@QEBAPEAVQObjectData@@XZ ; QScopedPointer<QObjectData,QScopedPointerDeleter<QObjectData> >::operator->
	cmp	QWORD PTR [rax+40], 0
	je	SHORT $LN3@metaObject
	mov	rax, QWORD PTR this$[rsp]
	add	rax, 8
	mov	rcx, rax
	call	??C?$QScopedPointer@VQObjectData@@U?$QScopedPointerDeleter@VQObjectData@@@@@@QEBAPEAVQObjectData@@XZ ; QScopedPointer<QObjectData,QScopedPointerDeleter<QObjectData> >::operator->
	mov	rcx, rax
	call	QWORD PTR __imp_?dynamicMetaObject@QObjectData@@QEBAPEAUQMetaObject@@XZ
	mov	QWORD PTR tv82[rsp], rax
	jmp	SHORT $LN4@metaObject
$LN3@metaObject:
	lea	rax, OFFSET FLAT:?staticMetaObject@process3@@2UQMetaObject@@B ; process3::staticMetaObject
	mov	QWORD PTR tv82[rsp], rax
$LN4@metaObject:
	mov	rax, QWORD PTR tv82[rsp]
; Line 96
	add	rsp, 56					; 00000038H
	ret	0
?metaObject@process3@@UEBAPEBUQMetaObject@@XZ ENDP	; process3::metaObject
_TEXT	ENDS
; Function compile flags: /Odtp
;	COMDAT ??C?$QScopedPointer@VQObjectData@@U?$QScopedPointerDeleter@VQObjectData@@@@@@QEBAPEAVQObjectData@@XZ
_TEXT	SEGMENT
this$ = 8
??C?$QScopedPointer@VQObjectData@@U?$QScopedPointerDeleter@VQObjectData@@@@@@QEBAPEAVQObjectData@@XZ PROC ; QScopedPointer<QObjectData,QScopedPointerDeleter<QObjectData> >::operator->, COMDAT
; File d:\qt\5.14.2\msvc2017_64\include\qtcore\qscopedpointer.h
; Line 117
	mov	QWORD PTR [rsp+8], rcx
; Line 118
	mov	rax, QWORD PTR this$[rsp]
	mov	rax, QWORD PTR [rax]
; Line 119
	ret	0
??C?$QScopedPointer@VQObjectData@@U?$QScopedPointerDeleter@VQObjectData@@@@@@QEBAPEAVQObjectData@@XZ ENDP ; QScopedPointer<QObjectData,QScopedPointerDeleter<QObjectData> >::operator->
_TEXT	ENDS
; Function compile flags: /Odtp
;	COMDAT ??0SuperData@QMetaObject@@QEAA@PEBU1@@Z
_TEXT	SEGMENT
this$ = 8
mo$ = 16
??0SuperData@QMetaObject@@QEAA@PEBU1@@Z PROC		; QMetaObject::SuperData::SuperData, COMDAT
; File d:\qt\5.14.2\msvc2017_64\include\qtcore\qobjectdefs.h
; Line 584
	mov	QWORD PTR [rsp+16], rdx
	mov	QWORD PTR [rsp+8], rcx
	mov	rax, QWORD PTR this$[rsp]
	mov	rcx, QWORD PTR mo$[rsp]
	mov	QWORD PTR [rax], rcx
	mov	rax, QWORD PTR this$[rsp]
	ret	0
??0SuperData@QMetaObject@@QEAA@PEBU1@@Z ENDP		; QMetaObject::SuperData::SuperData
_TEXT	ENDS
; Function compile flags: /Odtp
;	COMDAT ?__empty_global_delete@@YAXPEAX_K@Z
_TEXT	SEGMENT
__formal$ = 8
__formal$ = 16
?__empty_global_delete@@YAXPEAX_K@Z PROC		; __empty_global_delete, COMDAT
; File d:\0-documentation\qt\process3\process3\x64\debug\moc\moc_process3.cpp
; Line 124
	mov	QWORD PTR [rsp+16], rdx
	mov	QWORD PTR [rsp+8], rcx
	ret	0
?__empty_global_delete@@YAXPEAX_K@Z ENDP		; __empty_global_delete
_TEXT	ENDS
; Function compile flags: /Odtp
;	COMDAT ?__empty_global_delete@@YAXPEAX@Z
_TEXT	SEGMENT
__formal$ = 8
?__empty_global_delete@@YAXPEAX@Z PROC			; __empty_global_delete, COMDAT
; File d:\0-documentation\qt\process3\process3\x64\debug\moc\moc_process3.cpp
; Line 124
	mov	QWORD PTR [rsp+8], rcx
	ret	0
?__empty_global_delete@@YAXPEAX@Z ENDP			; __empty_global_delete
_TEXT	ENDS
END
